; ModuleID = '51/146.c'
source_filename = "51/146.c"
target datalayout = "e-m:e-p270:32:32-p271:32:32-p272:64:64-i64:64-f80:128-n8:16:32:64-S128"
target triple = "x86_64-pc-linux-gnu"

@.str = private unnamed_addr constant [3 x i8] c"%d\00", align 1
@.str.1 = private unnamed_addr constant [3 x i8] c"%s\00", align 1
@.str.2 = private unnamed_addr constant [3 x i8] c"NO\00", align 1
@.str.3 = private unnamed_addr constant [4 x i8] c"%d\0A\00", align 1
@.str.4 = private unnamed_addr constant [4 x i8] c"%s\0A\00", align 1

; Function Attrs: noinline nounwind uwtable
define dso_local void @main() #0 {
  %1 = alloca [505 x i8], align 16
  %2 = alloca [505 x [6 x i8]], align 16
  %3 = alloca i32, align 4
  %4 = alloca i32, align 4
  %5 = alloca i32, align 4
  %6 = alloca i32, align 4
  %7 = alloca [505 x i32], align 16
  %8 = alloca i32, align 4
  %9 = alloca i32, align 4
  %10 = alloca i32, align 4
  %11 = bitcast [505 x [6 x i8]]* %2 to i8*
  call void @llvm.memset.p0i8.i64(i8* align 16 %11, i8 0, i64 3030, i1 false)
  store i32 1, i32* %8, align 4
  store i32 1, i32* %9, align 4
  %12 = call i32 (i8*, ...) @__isoc99_scanf(i8* getelementptr inbounds ([3 x i8], [3 x i8]* @.str, i64 0, i64 0), i32* %3)
  %13 = getelementptr inbounds [505 x i8], [505 x i8]* %1, i64 0, i64 0
  %14 = call i32 (i8*, ...) @__isoc99_scanf(i8* getelementptr inbounds ([3 x i8], [3 x i8]* @.str.1, i64 0, i64 0), i8* %13)
  %15 = getelementptr inbounds [505 x i8], [505 x i8]* %1, i64 0, i64 0
  %16 = call i64 @strlen(i8* %15) #4
  %17 = trunc i64 %16 to i32
  store i32 %17, i32* %10, align 4
  store i32 0, i32* %4, align 4
  br label %18

18:                                               ; preds = %47, %0
  %19 = load i32, i32* %4, align 4
  %20 = load i32, i32* %10, align 4
  %21 = load i32, i32* %3, align 4
  %22 = sub nsw i32 %20, %21
  %23 = icmp sle i32 %19, %22
  br i1 %23, label %24, label %50

24:                                               ; preds = %18
  %25 = load i32, i32* %4, align 4
  store i32 %25, i32* %6, align 4
  store i32 0, i32* %5, align 4
  br label %26

26:                                               ; preds = %43, %24
  %27 = load i32, i32* %5, align 4
  %28 = load i32, i32* %3, align 4
  %29 = icmp slt i32 %27, %28
  br i1 %29, label %30, label %46

30:                                               ; preds = %26
  %31 = load i32, i32* %6, align 4
  %32 = sext i32 %31 to i64
  %33 = getelementptr inbounds [505 x i8], [505 x i8]* %1, i64 0, i64 %32
  %34 = load i8, i8* %33, align 1
  %35 = load i32, i32* %4, align 4
  %36 = sext i32 %35 to i64
  %37 = getelementptr inbounds [505 x [6 x i8]], [505 x [6 x i8]]* %2, i64 0, i64 %36
  %38 = load i32, i32* %5, align 4
  %39 = sext i32 %38 to i64
  %40 = getelementptr inbounds [6 x i8], [6 x i8]* %37, i64 0, i64 %39
  store i8 %34, i8* %40, align 1
  %41 = load i32, i32* %6, align 4
  %42 = add nsw i32 %41, 1
  store i32 %42, i32* %6, align 4
  br label %43

43:                                               ; preds = %30
  %44 = load i32, i32* %5, align 4
  %45 = add nsw i32 %44, 1
  store i32 %45, i32* %5, align 4
  br label %26

46:                                               ; preds = %26
  br label %47

47:                                               ; preds = %46
  %48 = load i32, i32* %4, align 4
  %49 = add nsw i32 %48, 1
  store i32 %49, i32* %4, align 4
  br label %18

50:                                               ; preds = %18
  store i32 0, i32* %4, align 4
  br label %51

51:                                               ; preds = %103, %50
  %52 = load i32, i32* %4, align 4
  %53 = load i32, i32* %10, align 4
  %54 = load i32, i32* %3, align 4
  %55 = sub nsw i32 %53, %54
  %56 = icmp slt i32 %52, %55
  br i1 %56, label %57, label %106

57:                                               ; preds = %51
  %58 = load i32, i32* %4, align 4
  %59 = sext i32 %58 to i64
  %60 = getelementptr inbounds [505 x i32], [505 x i32]* %7, i64 0, i64 %59
  store i32 1, i32* %60, align 4
  %61 = load i32, i32* %4, align 4
  %62 = add nsw i32 %61, 1
  store i32 %62, i32* %5, align 4
  br label %63

63:                                               ; preds = %87, %57
  %64 = load i32, i32* %5, align 4
  %65 = load i32, i32* %10, align 4
  %66 = load i32, i32* %3, align 4
  %67 = sub nsw i32 %65, %66
  %68 = icmp sle i32 %64, %67
  br i1 %68, label %69, label %90

69:                                               ; preds = %63
  %70 = load i32, i32* %4, align 4
  %71 = sext i32 %70 to i64
  %72 = getelementptr inbounds [505 x [6 x i8]], [505 x [6 x i8]]* %2, i64 0, i64 %71
  %73 = getelementptr inbounds [6 x i8], [6 x i8]* %72, i64 0, i64 0
  %74 = load i32, i32* %5, align 4
  %75 = sext i32 %74 to i64
  %76 = getelementptr inbounds [505 x [6 x i8]], [505 x [6 x i8]]* %2, i64 0, i64 %75
  %77 = getelementptr inbounds [6 x i8], [6 x i8]* %76, i64 0, i64 0
  %78 = call i32 @strcmp(i8* %73, i8* %77) #4
  %79 = icmp eq i32 %78, 0
  br i1 %79, label %80, label %86

80:                                               ; preds = %69
  %81 = load i32, i32* %4, align 4
  %82 = sext i32 %81 to i64
  %83 = getelementptr inbounds [505 x i32], [505 x i32]* %7, i64 0, i64 %82
  %84 = load i32, i32* %83, align 4
  %85 = add nsw i32 %84, 1
  store i32 %85, i32* %83, align 4
  br label %86

86:                                               ; preds = %80, %69
  br label %87

87:                                               ; preds = %86
  %88 = load i32, i32* %5, align 4
  %89 = add nsw i32 %88, 1
  store i32 %89, i32* %5, align 4
  br label %63

90:                                               ; preds = %63
  %91 = load i32, i32* %4, align 4
  %92 = sext i32 %91 to i64
  %93 = getelementptr inbounds [505 x i32], [505 x i32]* %7, i64 0, i64 %92
  %94 = load i32, i32* %93, align 4
  %95 = load i32, i32* %8, align 4
  %96 = icmp sge i32 %94, %95
  br i1 %96, label %97, label %102

97:                                               ; preds = %90
  %98 = load i32, i32* %4, align 4
  %99 = sext i32 %98 to i64
  %100 = getelementptr inbounds [505 x i32], [505 x i32]* %7, i64 0, i64 %99
  %101 = load i32, i32* %100, align 4
  store i32 %101, i32* %8, align 4
  br label %102

102:                                              ; preds = %97, %90
  br label %103

103:                                              ; preds = %102
  %104 = load i32, i32* %4, align 4
  %105 = add nsw i32 %104, 1
  store i32 %105, i32* %4, align 4
  br label %51

106:                                              ; preds = %51
  %107 = load i32, i32* %8, align 4
  %108 = icmp eq i32 %107, 1
  br i1 %108, label %109, label %111

109:                                              ; preds = %106
  %110 = call i32 (i8*, ...) @printf(i8* getelementptr inbounds ([3 x i8], [3 x i8]* @.str.2, i64 0, i64 0))
  br label %138

111:                                              ; preds = %106
  %112 = load i32, i32* %8, align 4
  %113 = call i32 (i8*, ...) @printf(i8* getelementptr inbounds ([4 x i8], [4 x i8]* @.str.3, i64 0, i64 0), i32 %112)
  store i32 0, i32* %4, align 4
  br label %114

114:                                              ; preds = %134, %111
  %115 = load i32, i32* %4, align 4
  %116 = load i32, i32* %10, align 4
  %117 = load i32, i32* %3, align 4
  %118 = sub nsw i32 %116, %117
  %119 = icmp sle i32 %115, %118
  br i1 %119, label %120, label %137

120:                                              ; preds = %114
  %121 = load i32, i32* %4, align 4
  %122 = sext i32 %121 to i64
  %123 = getelementptr inbounds [505 x i32], [505 x i32]* %7, i64 0, i64 %122
  %124 = load i32, i32* %123, align 4
  %125 = load i32, i32* %8, align 4
  %126 = icmp eq i32 %124, %125
  br i1 %126, label %127, label %133

127:                                              ; preds = %120
  %128 = load i32, i32* %4, align 4
  %129 = sext i32 %128 to i64
  %130 = getelementptr inbounds [505 x [6 x i8]], [505 x [6 x i8]]* %2, i64 0, i64 %129
  %131 = getelementptr inbounds [6 x i8], [6 x i8]* %130, i64 0, i64 0
  %132 = call i32 (i8*, ...) @printf(i8* getelementptr inbounds ([4 x i8], [4 x i8]* @.str.4, i64 0, i64 0), i8* %131)
  br label %133

133:                                              ; preds = %127, %120
  br label %134

134:                                              ; preds = %133
  %135 = load i32, i32* %4, align 4
  %136 = add nsw i32 %135, 1
  store i32 %136, i32* %4, align 4
  br label %114

137:                                              ; preds = %114
  br label %138

138:                                              ; preds = %137, %109
  ret void
}

; Function Attrs: argmemonly nounwind willreturn
declare void @llvm.memset.p0i8.i64(i8* nocapture writeonly, i8, i64, i1 immarg) #1

declare dso_local i32 @__isoc99_scanf(i8*, ...) #2

; Function Attrs: nounwind readonly
declare dso_local i64 @strlen(i8*) #3

; Function Attrs: nounwind readonly
declare dso_local i32 @strcmp(i8*, i8*) #3

declare dso_local i32 @printf(i8*, ...) #2


!llvm.module.flags = !{!0}
!llvm.ident = !{!1}

!0 = !{i32 1, !"wchar_size", i32 4}
!1 = !{!"clang version 10.0.0-4ubuntu1 "}
