; ModuleID = 'source-C-CXX/50/146.c'
source_filename = "source-C-CXX/50/146.c"
target datalayout = "e-m:e-p270:32:32-p271:32:32-p272:64:64-i64:64-f80:128-n8:16:32:64-S128"
target triple = "x86_64-pc-linux-gnu"

@.str = private unnamed_addr constant [3 x i8] c"%d\00", align 1
@.str.1 = private unnamed_addr constant [3 x i8] c"%s\00", align 1
@.str.2 = private unnamed_addr constant [3 x i8] c"NO\00", align 1
@.str.3 = private unnamed_addr constant [4 x i8] c"%d\0A\00", align 1

; Function Attrs: nofree nounwind sspstrong uwtable
define dso_local void @main() local_unnamed_addr #0 {
  %1 = alloca [505 x i8], align 16
  %2 = alloca [505 x [6 x i8]], align 16
  %3 = alloca i32, align 4
  %4 = alloca [505 x i32], align 16
  %5 = getelementptr inbounds [505 x i8], [505 x i8]* %1, i64 0, i64 0
  call void @llvm.lifetime.start.p0i8(i64 505, i8* nonnull %5) #7
  %6 = getelementptr inbounds [505 x [6 x i8]], [505 x [6 x i8]]* %2, i64 0, i64 0, i64 0
  call void @llvm.lifetime.start.p0i8(i64 3030, i8* nonnull %6) #7
  call void @llvm.memset.p0i8.i64(i8* noundef nonnull align 16 dereferenceable(3030) %6, i8 0, i64 3030, i1 false)
  %7 = bitcast i32* %3 to i8*
  call void @llvm.lifetime.start.p0i8(i64 4, i8* nonnull %7) #7
  %8 = bitcast [505 x i32]* %4 to i8*
  call void @llvm.lifetime.start.p0i8(i64 2020, i8* nonnull %8) #7
  %9 = call i32 (i8*, ...) @__isoc99_scanf(i8* getelementptr inbounds ([3 x i8], [3 x i8]* @.str, i64 0, i64 0), i32* nonnull %3)
  %10 = call i32 (i8*, ...) @__isoc99_scanf(i8* getelementptr inbounds ([3 x i8], [3 x i8]* @.str.1, i64 0, i64 0), i8* nonnull %5)
  %11 = call i64 @strlen(i8* noundef nonnull %5) #8
  %12 = trunc i64 %11 to i32
  %13 = load i32, i32* %3, align 4, !tbaa !5
  %14 = sub i32 %12, %13
  %15 = icmp slt i32 %14, 0
  br i1 %15, label %87, label %16

16:                                               ; preds = %0
  %17 = icmp sgt i32 %13, 0
  br i1 %17, label %18, label %56

18:                                               ; preds = %16
  %19 = zext i32 %13 to i64
  %20 = add i32 %12, 1
  %21 = sub i32 %20, %13
  %22 = zext i32 %21 to i64
  %23 = add nsw i64 %22, -1
  %24 = and i64 %22, 3
  %25 = icmp ult i64 %23, 3
  br i1 %25, label %45, label %26

26:                                               ; preds = %18
  %27 = and i64 %22, 4294967292
  br label %28

28:                                               ; preds = %28, %26
  %29 = phi i64 [ 0, %26 ], [ %42, %28 ]
  %30 = phi i64 [ %27, %26 ], [ %43, %28 ]
  %31 = getelementptr [505 x [6 x i8]], [505 x [6 x i8]]* %2, i64 0, i64 %29, i64 0
  %32 = getelementptr [505 x i8], [505 x i8]* %1, i64 0, i64 %29
  call void @llvm.memcpy.p0i8.p0i8.i64(i8* align 8 %31, i8* align 4 %32, i64 %19, i1 false)
  %33 = or i64 %29, 1
  %34 = getelementptr [505 x [6 x i8]], [505 x [6 x i8]]* %2, i64 0, i64 %33, i64 0
  %35 = getelementptr [505 x i8], [505 x i8]* %1, i64 0, i64 %33
  call void @llvm.memcpy.p0i8.p0i8.i64(i8* align 2 %34, i8* align 1 %35, i64 %19, i1 false)
  %36 = or i64 %29, 2
  %37 = getelementptr [505 x [6 x i8]], [505 x [6 x i8]]* %2, i64 0, i64 %36, i64 0
  %38 = getelementptr [505 x i8], [505 x i8]* %1, i64 0, i64 %36
  call void @llvm.memcpy.p0i8.p0i8.i64(i8* align 4 %37, i8* align 2 %38, i64 %19, i1 false)
  %39 = or i64 %29, 3
  %40 = getelementptr [505 x [6 x i8]], [505 x [6 x i8]]* %2, i64 0, i64 %39, i64 0
  %41 = getelementptr [505 x i8], [505 x i8]* %1, i64 0, i64 %39
  call void @llvm.memcpy.p0i8.p0i8.i64(i8* align 2 %40, i8* align 1 %41, i64 %19, i1 false)
  %42 = add nuw nsw i64 %29, 4
  %43 = add i64 %30, -4
  %44 = icmp eq i64 %43, 0
  br i1 %44, label %45, label %28, !llvm.loop !9

45:                                               ; preds = %28, %18
  %46 = phi i64 [ 0, %18 ], [ %42, %28 ]
  %47 = icmp eq i64 %24, 0
  br i1 %47, label %56, label %48

48:                                               ; preds = %45, %48
  %49 = phi i64 [ %53, %48 ], [ %46, %45 ]
  %50 = phi i64 [ %54, %48 ], [ %24, %45 ]
  %51 = getelementptr [505 x [6 x i8]], [505 x [6 x i8]]* %2, i64 0, i64 %49, i64 0
  %52 = getelementptr [505 x i8], [505 x i8]* %1, i64 0, i64 %49
  call void @llvm.memcpy.p0i8.p0i8.i64(i8* align 2 %51, i8* align 1 %52, i64 %19, i1 false)
  %53 = add nuw nsw i64 %49, 1
  %54 = add i64 %50, -1
  %55 = icmp eq i64 %54, 0
  br i1 %55, label %56, label %48, !llvm.loop !11

56:                                               ; preds = %45, %48, %16
  %57 = icmp sgt i32 %14, 0
  br i1 %57, label %58, label %87

58:                                               ; preds = %56
  %59 = zext i32 %14 to i64
  %60 = zext i32 %14 to i64
  br label %61

61:                                               ; preds = %80, %58
  %62 = phi i64 [ 0, %58 ], [ %66, %80 ]
  %63 = phi i64 [ 1, %58 ], [ %83, %80 ]
  %64 = phi i32 [ 1, %58 ], [ %82, %80 ]
  %65 = getelementptr inbounds [505 x i32], [505 x i32]* %4, i64 0, i64 %62
  store i32 1, i32* %65, align 4, !tbaa !5
  %66 = add nuw nsw i64 %62, 1
  %67 = getelementptr inbounds [505 x [6 x i8]], [505 x [6 x i8]]* %2, i64 0, i64 %62, i64 0
  br label %68

68:                                               ; preds = %61, %76
  %69 = phi i32 [ 1, %61 ], [ %77, %76 ]
  %70 = phi i64 [ %63, %61 ], [ %78, %76 ]
  %71 = getelementptr inbounds [505 x [6 x i8]], [505 x [6 x i8]]* %2, i64 0, i64 %70, i64 0
  %72 = call i32 @strcmp(i8* noundef nonnull %67, i8* noundef nonnull %71) #8
  %73 = icmp eq i32 %72, 0
  br i1 %73, label %74, label %76

74:                                               ; preds = %68
  %75 = add nsw i32 %69, 1
  store i32 %75, i32* %65, align 4, !tbaa !5
  br label %76

76:                                               ; preds = %68, %74
  %77 = phi i32 [ %69, %68 ], [ %75, %74 ]
  %78 = add nuw nsw i64 %70, 1
  %79 = icmp ult i64 %70, %59
  br i1 %79, label %68, label %80, !llvm.loop !13

80:                                               ; preds = %76
  %81 = icmp slt i32 %77, %64
  %82 = select i1 %81, i32 %64, i32 %77
  %83 = add nuw nsw i64 %63, 1
  %84 = icmp eq i64 %66, %60
  br i1 %84, label %85, label %61, !llvm.loop !14

85:                                               ; preds = %80
  %86 = icmp eq i32 %82, 1
  br i1 %86, label %87, label %89

87:                                               ; preds = %0, %56, %85
  %88 = call i32 (i8*, ...) @printf(i8* nonnull dereferenceable(1) getelementptr inbounds ([3 x i8], [3 x i8]* @.str.2, i64 0, i64 0))
  br label %109

89:                                               ; preds = %85
  %90 = call i32 (i8*, ...) @printf(i8* nonnull dereferenceable(1) getelementptr inbounds ([4 x i8], [4 x i8]* @.str.3, i64 0, i64 0), i32 %82)
  %91 = load i32, i32* %3, align 4, !tbaa !5
  %92 = icmp sgt i32 %91, %12
  br i1 %92, label %109, label %93

93:                                               ; preds = %89, %103
  %94 = phi i32 [ %104, %103 ], [ %91, %89 ]
  %95 = phi i64 [ %105, %103 ], [ 0, %89 ]
  %96 = getelementptr inbounds [505 x i32], [505 x i32]* %4, i64 0, i64 %95
  %97 = load i32, i32* %96, align 4, !tbaa !5
  %98 = icmp eq i32 %97, %82
  br i1 %98, label %99, label %103

99:                                               ; preds = %93
  %100 = getelementptr inbounds [505 x [6 x i8]], [505 x [6 x i8]]* %2, i64 0, i64 %95, i64 0
  %101 = call i32 @puts(i8* nonnull %100)
  %102 = load i32, i32* %3, align 4, !tbaa !5
  br label %103

103:                                              ; preds = %93, %99
  %104 = phi i32 [ %94, %93 ], [ %102, %99 ]
  %105 = add nuw nsw i64 %95, 1
  %106 = sub nsw i32 %12, %104
  %107 = sext i32 %106 to i64
  %108 = icmp slt i64 %95, %107
  br i1 %108, label %93, label %109, !llvm.loop !15

109:                                              ; preds = %103, %89, %87
  call void @llvm.lifetime.end.p0i8(i64 2020, i8* nonnull %8) #7
  call void @llvm.lifetime.end.p0i8(i64 4, i8* nonnull %7) #7
  call void @llvm.lifetime.end.p0i8(i64 3030, i8* nonnull %6) #7
  call void @llvm.lifetime.end.p0i8(i64 505, i8* nonnull %5) #7
  ret void
}

; Function Attrs: argmemonly mustprogress nofree nosync nounwind willreturn
declare void @llvm.lifetime.start.p0i8(i64 immarg, i8* nocapture) #1

; Function Attrs: argmemonly mustprogress nofree nounwind willreturn writeonly
declare void @llvm.memset.p0i8.i64(i8* nocapture writeonly, i8, i64, i1 immarg) #2

; Function Attrs: nofree nounwind
declare noundef i32 @__isoc99_scanf(i8* nocapture noundef readonly, ...) local_unnamed_addr #3

; Function Attrs: argmemonly mustprogress nofree nounwind readonly willreturn
declare i64 @strlen(i8* nocapture) local_unnamed_addr #4

; Function Attrs: argmemonly mustprogress nofree nounwind readonly willreturn
declare i32 @strcmp(i8* nocapture, i8* nocapture) local_unnamed_addr #4

; Function Attrs: nofree nounwind
declare noundef i32 @printf(i8* nocapture noundef readonly, ...) local_unnamed_addr #3

; Function Attrs: argmemonly mustprogress nofree nosync nounwind willreturn
declare void @llvm.lifetime.end.p0i8(i64 immarg, i8* nocapture) #1

; Function Attrs: nofree nounwind
declare noundef i32 @puts(i8* nocapture noundef readonly) local_unnamed_addr #5

; Function Attrs: argmemonly nofree nounwind willreturn
declare void @llvm.memcpy.p0i8.p0i8.i64(i8* noalias nocapture writeonly, i8* noalias nocapture readonly, i64, i1 immarg) #6


!llvm.module.flags = !{!0, !1, !2, !3}
!llvm.ident = !{!4}

!0 = !{i32 1, !"wchar_size", i32 4}
!1 = !{i32 7, !"PIC Level", i32 2}
!2 = !{i32 7, !"PIE Level", i32 2}
!3 = !{i32 7, !"uwtable", i32 1}
!4 = !{!"clang version 13.0.0"}
!5 = !{!6, !6, i64 0}
!6 = !{!"int", !7, i64 0}
!7 = !{!"omnipotent char", !8, i64 0}
!8 = !{!"Simple C/C++ TBAA"}
!9 = distinct !{!9, !10}
!10 = !{!"llvm.loop.mustprogress"}
!11 = distinct !{!11, !12}
!12 = !{!"llvm.loop.unroll.disable"}
!13 = distinct !{!13, !10}
!14 = distinct !{!14, !10}
!15 = distinct !{!15, !10}
